target datalayout = "e-m:e-p270:32:32-p271:32:32-p272:64:64-i64:64-i128:128-f80:128-n8:16:32:64-S128"
target triple = "x86_64-unknown-linux-gnu"

%struct.sockaddr_in = type { i16, i16, %struct.in_addr, [8 x i8] }
%struct.in_addr = type { i32 }
%union.__CONST_SOCKADDR_ARG = type { ptr }
%struct.ip_mreq = type { %struct.in_addr, %struct.in_addr }

@.str.1 = private unnamed_addr constant [21 x i8] c"../qemu/net/socket.c\00", align 1
@__func__.net_socket_mcast_create = private unnamed_addr constant [24 x i8] c"net_socket_mcast_create\00", align 1
@.str.13 = private unnamed_addr constant [69 x i8] c"specified mcastaddr %s (0x%08x) does not contain a multicast address\00", align 1
@.str.14 = private unnamed_addr constant [29 x i8] c"can't create datagram socket\00", align 1
@.str.15 = private unnamed_addr constant [37 x i8] c"can't set socket option SO_REUSEADDR\00", align 1
@.str.16 = private unnamed_addr constant [27 x i8] c"can't bind ip=%s to socket\00", align 1
@.str.17 = private unnamed_addr constant [39 x i8] c"can't add socket to multicast group %s\00", align 1
@.str.18 = private unnamed_addr constant [42 x i8] c"can't force multicast message to loopback\00", align 1
@.str.19 = private unnamed_addr constant [45 x i8] c"can't set the default network send interface\00", align 1

; Function Attrs: nounwind sspstrong uwtable
define internal i32 @net_socket_mcast_create(ptr noundef %mcastaddr, ptr noundef %localaddr, ptr noundef %errp) #0 {
entry:
  %retval = alloca i32, align 4
  %mcastaddr.addr = alloca ptr, align 8
  %localaddr.addr = alloca ptr, align 8
  %errp.addr = alloca ptr, align 8
  %imr = alloca %struct.ip_mreq, align 4
  %fd = alloca i32, align 4
  %val = alloca i32, align 4
  %ret = alloca i32, align 4
  %loop = alloca i32, align 4
  %agg.tmp = alloca %union.__CONST_SOCKADDR_ARG, align 8
  store ptr %mcastaddr, ptr %mcastaddr.addr, align 8
  store ptr %localaddr, ptr %localaddr.addr, align 8
  store ptr %errp, ptr %errp.addr, align 8
  %0 = load ptr, ptr %mcastaddr.addr, align 8
  %sin_addr = getelementptr inbounds %struct.sockaddr_in, ptr %0, i32 0, i32 2
  %s_addr = getelementptr inbounds %struct.in_addr, ptr %sin_addr, i32 0, i32 0
  %1 = load i32, ptr %s_addr, align 4
  %call = call i32 @ntohl(i32 noundef %1) #8
  %and = and i32 %call, -268435456
  %cmp = icmp eq i32 %and, -536870912
  br i1 %cmp, label %if.end, label %if.then

if.then:                                          ; preds = %entry
  %2 = load ptr, ptr %errp.addr, align 8
  %3 = load ptr, ptr %mcastaddr.addr, align 8
  %sin_addr1 = getelementptr inbounds %struct.sockaddr_in, ptr %3, i32 0, i32 2
  %coerce.dive = getelementptr inbounds %struct.in_addr, ptr %sin_addr1, i32 0, i32 0
  %4 = load i32, ptr %coerce.dive, align 4
  %call2 = call ptr @inet_ntoa(i32 %4) #7
  %5 = load ptr, ptr %mcastaddr.addr, align 8
  %sin_addr3 = getelementptr inbounds %struct.sockaddr_in, ptr %5, i32 0, i32 2
  %s_addr4 = getelementptr inbounds %struct.in_addr, ptr %sin_addr3, i32 0, i32 0
  %6 = load i32, ptr %s_addr4, align 4
  %call5 = call i32 @ntohl(i32 noundef %6) #8
  call void (ptr, ptr, i32, ptr, ptr, ...) @error_setg_internal(ptr noundef %2, ptr noundef @.str.1, i32 noundef 230, ptr noundef @__func__.net_socket_mcast_create, ptr noundef @.str.13, ptr noundef %call2, i32 noundef %call5)
  store i32 -1, ptr %retval, align 4
  br label %return

if.end:                                           ; preds = %entry
  %call6 = call i32 @qemu_socket(i32 noundef 2, i32 noundef 2, i32 noundef 0)
  store i32 %call6, ptr %fd, align 4
  %7 = load i32, ptr %fd, align 4
  %cmp7 = icmp slt i32 %7, 0
  br i1 %cmp7, label %if.then8, label %if.end10

if.then8:                                         ; preds = %if.end
  %8 = load ptr, ptr %errp.addr, align 8
  %call9 = call ptr @__errno_location() #8
  %9 = load i32, ptr %call9, align 4
  call void (ptr, ptr, i32, ptr, i32, ptr, ...) @error_setg_errno_internal(ptr noundef %8, ptr noundef @.str.1, i32 noundef 236, ptr noundef @__func__.net_socket_mcast_create, i32 noundef %9, ptr noundef @.str.14)
  store i32 -1, ptr %retval, align 4
  br label %return

if.end10:                                         ; preds = %if.end
  store i32 1, ptr %val, align 4
  %10 = load i32, ptr %fd, align 4
  %call11 = call i32 @setsockopt(i32 noundef %10, i32 noundef 1, i32 noundef 2, ptr noundef %val, i32 noundef 4) #7
  store i32 %call11, ptr %ret, align 4
  %11 = load i32, ptr %ret, align 4
  %cmp12 = icmp slt i32 %11, 0
  br i1 %cmp12, label %if.then13, label %if.end15

if.then13:                                        ; preds = %if.end10
  %12 = load ptr, ptr %errp.addr, align 8
  %call14 = call ptr @__errno_location() #8
  %13 = load i32, ptr %call14, align 4
  call void (ptr, ptr, i32, ptr, i32, ptr, ...) @error_setg_errno_internal(ptr noundef %12, ptr noundef @.str.1, i32 noundef 249, ptr noundef @__func__.net_socket_mcast_create, i32 noundef %13, ptr noundef @.str.15)
  br label %fail

if.end15:                                         ; preds = %if.end10
  %14 = load i32, ptr %fd, align 4
  %15 = load ptr, ptr %mcastaddr.addr, align 8
  store ptr %15, ptr %agg.tmp, align 8
  %coerce.dive16 = getelementptr inbounds %union.__CONST_SOCKADDR_ARG, ptr %agg.tmp, i32 0, i32 0
  %16 = load ptr, ptr %coerce.dive16, align 8
  %call17 = call i32 @bind(i32 noundef %14, ptr %16, i32 noundef 16) #7
  store i32 %call17, ptr %ret, align 4
  %17 = load i32, ptr %ret, align 4
  %cmp18 = icmp slt i32 %17, 0
  br i1 %cmp18, label %if.then19, label %if.end24

if.then19:                                        ; preds = %if.end15
  %18 = load ptr, ptr %errp.addr, align 8
  %call20 = call ptr @__errno_location() #8
  %19 = load i32, ptr %call20, align 4
  %20 = load ptr, ptr %mcastaddr.addr, align 8
  %sin_addr21 = getelementptr inbounds %struct.sockaddr_in, ptr %20, i32 0, i32 2
  %coerce.dive22 = getelementptr inbounds %struct.in_addr, ptr %sin_addr21, i32 0, i32 0
  %21 = load i32, ptr %coerce.dive22, align 4
  %call23 = call ptr @inet_ntoa(i32 %21) #7
  call void (ptr, ptr, i32, ptr, i32, ptr, ...) @error_setg_errno_internal(ptr noundef %18, ptr noundef @.str.1, i32 noundef 256, ptr noundef @__func__.net_socket_mcast_create, i32 noundef %19, ptr noundef @.str.16, ptr noundef %call23)
  br label %fail

if.end24:                                         ; preds = %if.end15
  %imr_multiaddr = getelementptr inbounds %struct.ip_mreq, ptr %imr, i32 0, i32 0
  %22 = load ptr, ptr %mcastaddr.addr, align 8
  %sin_addr25 = getelementptr inbounds %struct.sockaddr_in, ptr %22, i32 0, i32 2
  call void @llvm.memcpy.p0.p0.i64(ptr align 4 %imr_multiaddr, ptr align 4 %sin_addr25, i64 4, i1 false)
  %23 = load ptr, ptr %localaddr.addr, align 8
  %tobool = icmp ne ptr %23, null
  br i1 %tobool, label %if.then26, label %if.else

if.then26:                                        ; preds = %if.end24
  %imr_interface = getelementptr inbounds %struct.ip_mreq, ptr %imr, i32 0, i32 1
  %24 = load ptr, ptr %localaddr.addr, align 8
  call void @llvm.memcpy.p0.p0.i64(ptr align 4 %imr_interface, ptr align 4 %24, i64 4, i1 false)
  br label %if.end30

if.else:                                          ; preds = %if.end24
  %call27 = call i32 @htonl(i32 noundef 0) #8
  %imr_interface28 = getelementptr inbounds %struct.ip_mreq, ptr %imr, i32 0, i32 1
  %s_addr29 = getelementptr inbounds %struct.in_addr, ptr %imr_interface28, i32 0, i32 0
  store i32 %call27, ptr %s_addr29, align 4
  br label %if.end30

if.end30:                                         ; preds = %if.else, %if.then26
  %25 = load i32, ptr %fd, align 4
  %call31 = call i32 @setsockopt(i32 noundef %25, i32 noundef 0, i32 noundef 35, ptr noundef %imr, i32 noundef 8) #7
  store i32 %call31, ptr %ret, align 4
  %26 = load i32, ptr %ret, align 4
  %cmp32 = icmp slt i32 %26, 0
  br i1 %cmp32, label %if.then33, label %if.end38

if.then33:                                        ; preds = %if.end30
  %27 = load ptr, ptr %errp.addr, align 8
  %call34 = call ptr @__errno_location() #8
  %28 = load i32, ptr %call34, align 4
  %imr_multiaddr35 = getelementptr inbounds %struct.ip_mreq, ptr %imr, i32 0, i32 0
  %coerce.dive36 = getelementptr inbounds %struct.in_addr, ptr %imr_multiaddr35, i32 0, i32 0
  %29 = load i32, ptr %coerce.dive36, align 4
  %call37 = call ptr @inet_ntoa(i32 %29) #7
  call void (ptr, ptr, i32, ptr, i32, ptr, ...) @error_setg_errno_internal(ptr noundef %27, ptr noundef @.str.1, i32 noundef 273, ptr noundef @__func__.net_socket_mcast_create, i32 noundef %28, ptr noundef @.str.17, ptr noundef %call37)
  br label %fail

if.end38:                                         ; preds = %if.end30
  store i32 1, ptr %loop, align 4
  %30 = load i32, ptr %fd, align 4
  %call39 = call i32 @setsockopt(i32 noundef %30, i32 noundef 0, i32 noundef 34, ptr noundef %loop, i32 noundef 4) #7
  store i32 %call39, ptr %ret, align 4
  %31 = load i32, ptr %ret, align 4
  %cmp40 = icmp slt i32 %31, 0
  br i1 %cmp40, label %if.then41, label %if.end43

if.then41:                                        ; preds = %if.end38
  %32 = load ptr, ptr %errp.addr, align 8
  %call42 = call ptr @__errno_location() #8
  %33 = load i32, ptr %call42, align 4
  call void (ptr, ptr, i32, ptr, i32, ptr, ...) @error_setg_errno_internal(ptr noundef %32, ptr noundef @.str.1, i32 noundef 283, ptr noundef @__func__.net_socket_mcast_create, i32 noundef %33, ptr noundef @.str.18)
  br label %fail

if.end43:                                         ; preds = %if.end38
  %34 = load ptr, ptr %localaddr.addr, align 8
  %cmp44 = icmp ne ptr %34, null
  br i1 %cmp44, label %if.then45, label %if.end51

if.then45:                                        ; preds = %if.end43
  %35 = load i32, ptr %fd, align 4
  %36 = load ptr, ptr %localaddr.addr, align 8
  %call46 = call i32 @setsockopt(i32 noundef %35, i32 noundef 0, i32 noundef 32, ptr noundef %36, i32 noundef 4) #7
  store i32 %call46, ptr %ret, align 4
  %37 = load i32, ptr %ret, align 4
  %cmp47 = icmp slt i32 %37, 0
  br i1 %cmp47, label %if.then48, label %if.end50

if.then48:                                        ; preds = %if.then45
  %38 = load ptr, ptr %errp.addr, align 8
  %call49 = call ptr @__errno_location() #8
  %39 = load i32, ptr %call49, align 4
  call void (ptr, ptr, i32, ptr, i32, ptr, ...) @error_setg_errno_internal(ptr noundef %38, ptr noundef @.str.1, i32 noundef 293, ptr noundef @__func__.net_socket_mcast_create, i32 noundef %39, ptr noundef @.str.19)
  br label %fail

if.end50:                                         ; preds = %if.then45
  br label %if.end51

if.end51:                                         ; preds = %if.end50, %if.end43
  %40 = load i32, ptr %fd, align 4
  call void @qemu_socket_set_nonblock(i32 noundef %40)
  %41 = load i32, ptr %fd, align 4
  store i32 %41, ptr %retval, align 4
  br label %return

fail:                                             ; preds = %if.then48, %if.then41, %if.then33, %if.then19, %if.then13
  %42 = load i32, ptr %fd, align 4
  %cmp52 = icmp sge i32 %42, 0
  br i1 %cmp52, label %if.then53, label %if.end55

if.then53:                                        ; preds = %fail
  %43 = load i32, ptr %fd, align 4
  %call54 = call i32 @close(i32 noundef %43)
  br label %if.end55

if.end55:                                         ; preds = %if.then53, %fail
  store i32 -1, ptr %retval, align 4
  br label %return

return:                                           ; preds = %if.end55, %if.end51, %if.then8, %if.then
  %44 = load i32, ptr %retval, align 4
  ret i32 %44
}