; Function Attrs: nounwind sspstrong uwtable
define internal fastcc range(i32 -1, -2147483648) i32 @net_socket_mcast_create(ptr noundef nonnull %mcastaddr, ptr noundef %localaddr, ptr noundef %errp) unnamed_addr #0 {
entry:
  %imr = alloca %struct.ip_mreq, align 4
  %val = alloca i32, align 4
  %loop = alloca i32, align 4
  %sin_addr = getelementptr inbounds nuw i8, ptr %mcastaddr, i64 4
  %0 = load i32, ptr %sin_addr, align 4
  %call = tail call i32 @ntohl(i32 noundef %0) #9
  %and = and i32 %call, -268435456
  %cmp = icmp eq i32 %and, -536870912
  br i1 %cmp, label %if.end, label %if.then

if.then:                                          ; preds = %entry
  %call2 = tail call ptr @inet_ntoa(i32 %0) #8
  %1 = load i32, ptr %sin_addr, align 4
  %call5 = tail call i32 @ntohl(i32 noundef %1) #9
  tail call void (ptr, ptr, i32, ptr, ptr, ...) @error_setg_internal(ptr noundef %errp, ptr noundef nonnull @.str.1, i32 noundef 230, ptr noundef nonnull @__func__.net_socket_mcast_create, ptr noundef nonnull @.str.13, ptr noundef %call2, i32 noundef %call5) #8
  br label %return

if.end:                                           ; preds = %entry
  %call6 = tail call i32 @qemu_socket(i32 noundef 2, i32 noundef 2, i32 noundef 0) #8
  %cmp7 = icmp slt i32 %call6, 0
  br i1 %cmp7, label %if.then8, label %if.end10

if.then8:                                         ; preds = %if.end
  %call9 = tail call ptr @__errno_location() #9
  %2 = load i32, ptr %call9, align 4
  tail call void (ptr, ptr, i32, ptr, i32, ptr, ...) @error_setg_errno_internal(ptr noundef %errp, ptr noundef nonnull @.str.1, i32 noundef 236, ptr noundef nonnull @__func__.net_socket_mcast_create, i32 noundef %2, ptr noundef nonnull @.str.14) #8
  br label %return

if.end10:                                         ; preds = %if.end
  store i32 1, ptr %val, align 4
  %call11 = call i32 @setsockopt(i32 noundef %call6, i32 noundef 1, i32 noundef 2, ptr noundef nonnull %val, i32 noundef 4) #8
  %cmp12 = icmp slt i32 %call11, 0
  br i1 %cmp12, label %if.then13, label %if.end15

if.then13:                                        ; preds = %if.end10
  %call14 = tail call ptr @__errno_location() #9
  %3 = load i32, ptr %call14, align 4
  call void (ptr, ptr, i32, ptr, i32, ptr, ...) @error_setg_errno_internal(ptr noundef %errp, ptr noundef nonnull @.str.1, i32 noundef 249, ptr noundef nonnull @__func__.net_socket_mcast_create, i32 noundef %3, ptr noundef nonnull @.str.15) #8
  br label %if.then53

if.end15:                                         ; preds = %if.end10
  %call17 = call i32 @bind(i32 noundef %call6, ptr nonnull %mcastaddr, i32 noundef 16) #8
  %cmp18 = icmp slt i32 %call17, 0
  br i1 %cmp18, label %if.then19, label %if.end24

if.then19:                                        ; preds = %if.end15
  %call20 = tail call ptr @__errno_location() #9
  %4 = load i32, ptr %call20, align 4
  %5 = load i32, ptr %sin_addr, align 4
  %call23 = call ptr @inet_ntoa(i32 %5) #8
  call void (ptr, ptr, i32, ptr, i32, ptr, ...) @error_setg_errno_internal(ptr noundef %errp, ptr noundef nonnull @.str.1, i32 noundef 256, ptr noundef nonnull @__func__.net_socket_mcast_create, i32 noundef %4, ptr noundef nonnull @.str.16, ptr noundef %call23) #8
  br label %if.then53

if.end24:                                         ; preds = %if.end15
  %6 = load i32, ptr %sin_addr, align 4
  store i32 %6, ptr %imr, align 4
  %tobool.not = icmp eq ptr %localaddr, null
  br i1 %tobool.not, label %if.else, label %if.then26

if.then26:                                        ; preds = %if.end24
  %7 = load i32, ptr %localaddr, align 4
  br label %if.end30

if.else:                                          ; preds = %if.end24
  %call27 = call i32 @htonl(i32 noundef 0) #9
  br label %if.end30

if.end30:                                         ; preds = %if.else, %if.then26
  %.sink = phi i32 [ %call27, %if.else ], [ %7, %if.then26 ]
  %8 = getelementptr inbounds nuw i8, ptr %imr, i64 4
  store i32 %.sink, ptr %8, align 4
  %call31 = call i32 @setsockopt(i32 noundef %call6, i32 noundef 0, i32 noundef 35, ptr noundef nonnull %imr, i32 noundef 8) #8
  %cmp32 = icmp slt i32 %call31, 0
  br i1 %cmp32, label %if.then33, label %if.end38

if.then33:                                        ; preds = %if.end30
  %call34 = tail call ptr @__errno_location() #9
  %9 = load i32, ptr %call34, align 4
  %10 = load i32, ptr %imr, align 4
  %call37 = call ptr @inet_ntoa(i32 %10) #8
  call void (ptr, ptr, i32, ptr, i32, ptr, ...) @error_setg_errno_internal(ptr noundef %errp, ptr noundef nonnull @.str.1, i32 noundef 273, ptr noundef nonnull @__func__.net_socket_mcast_create, i32 noundef %9, ptr noundef nonnull @.str.17, ptr noundef %call37) #8
  br label %if.then53

if.end38:                                         ; preds = %if.end30
  store i32 1, ptr %loop, align 4
  %call39 = call i32 @setsockopt(i32 noundef %call6, i32 noundef 0, i32 noundef 34, ptr noundef nonnull %loop, i32 noundef 4) #8
  %cmp40 = icmp slt i32 %call39, 0
  br i1 %cmp40, label %if.then41, label %if.end43

if.then41:                                        ; preds = %if.end38
  %call42 = tail call ptr @__errno_location() #9
  %11 = load i32, ptr %call42, align 4
  call void (ptr, ptr, i32, ptr, i32, ptr, ...) @error_setg_errno_internal(ptr noundef %errp, ptr noundef nonnull @.str.1, i32 noundef 283, ptr noundef nonnull @__func__.net_socket_mcast_create, i32 noundef %11, ptr noundef nonnull @.str.18) #8
  br label %if.then53

if.end43:                                         ; preds = %if.end38
  br i1 %tobool.not, label %if.end51, label %if.then45

if.then45:                                        ; preds = %if.end43
  %call46 = call i32 @setsockopt(i32 noundef %call6, i32 noundef 0, i32 noundef 32, ptr noundef nonnull %localaddr, i32 noundef 4) #8
  %cmp47 = icmp slt i32 %call46, 0
  br i1 %cmp47, label %if.then48, label %if.end51

if.then48:                                        ; preds = %if.then45
  %call49 = tail call ptr @__errno_location() #9
  %12 = load i32, ptr %call49, align 4
  call void (ptr, ptr, i32, ptr, i32, ptr, ...) @error_setg_errno_internal(ptr noundef %errp, ptr noundef nonnull @.str.1, i32 noundef 293, ptr noundef nonnull @__func__.net_socket_mcast_create, i32 noundef %12, ptr noundef nonnull @.str.19) #8
  br label %if.then53

if.end51:                                         ; preds = %if.then45, %if.end43
  call void @qemu_socket_set_nonblock(i32 noundef %call6) #8
  br label %return

if.then53:                                        ; preds = %if.then13, %if.then19, %if.then33, %if.then41, %if.then48
  %call54 = call i32 @close(i32 noundef %call6) #8
  br label %return

return:                                           ; preds = %if.then53, %if.end51, %if.then8, %if.then
  %retval.0 = phi i32 [ -1, %if.then8 ], [ -1, %if.then53 ], [ %call6, %if.end51 ], [ -1, %if.then ]
  ret i32 %retval.0
}